; Function Attrs: nounwind uwtable
define dso_local void @appendStringInfoChar(ptr noundef captures(none) %0, i8 noundef signext %1) local_unnamed_addr #0 {
  %3 = getelementptr inbounds nuw i8, ptr %0, i64 8
  %4 = load i32, ptr %3, align 8
  %5 = add i32 %4, 1
  %6 = getelementptr inbounds nuw i8, ptr %0, i64 12
  %7 = load i32, ptr %6, align 4
  %.not = icmp slt i32 %5, %7
  br i1 %.not, label %9, label %8

8:                                                ; preds = %2
  tail call void @enlargeStringInfo(ptr noundef nonnull %0, i32 noundef 1)
  %.pre = load i32, ptr %3, align 8
  br label %9

9:                                                ; preds = %8, %2
  %10 = phi i32 [ %.pre, %8 ], [ %4, %2 ]
  %11 = load ptr, ptr %0, align 8
  %12 = sext i32 %10 to i64
  %13 = getelementptr inbounds i8, ptr %11, i64 %12
  store i8 %1, ptr %13, align 1
  %14 = load i32, ptr %3, align 8
  %15 = add i32 %14, 1
  store i32 %15, ptr %3, align 8
  %16 = load ptr, ptr %0, align 8
  %17 = sext i32 %15 to i64
  %18 = getelementptr inbounds i8, ptr %16, i64 %17
  store i8 0, ptr %18, align 1
  ret void
}